target datalayout = "e-m:e-p270:32:32-p271:32:32-p272:64:64-i64:64-i128:128-f80:128-n8:16:32:64-S128"
target triple = "x86_64-pc-linux-gnu"

; Function Attrs: mustprogress nounwind uwtable
define noundef i32 @_ZN6icu_779BytesTrie9readValueEPKhi(ptr noundef %0, i32 noundef %1) #0 align 2 {
  %3 = alloca ptr, align 8
  %4 = alloca i32, align 4
  %5 = alloca i32, align 4
  store ptr %0, ptr %3, align 8, !tbaa !12
  store i32 %1, ptr %4, align 4, !tbaa !13
  call void @llvm.lifetime.start.p0(i64 4, ptr %5) #8
  %6 = load i32, ptr %4, align 4, !tbaa !13
  %7 = icmp slt i32 %6, 81
  br i1 %7, label %8, label %11

8:                                                ; preds = %2
  %9 = load i32, ptr %4, align 4, !tbaa !13
  %10 = sub nsw i32 %9, 16
  store i32 %10, ptr %5, align 4, !tbaa !13
  br label %86

11:                                               ; preds = %2
  %12 = load i32, ptr %4, align 4, !tbaa !13
  %13 = icmp slt i32 %12, 108
  br i1 %13, label %14, label %22

14:                                               ; preds = %11
  %15 = load i32, ptr %4, align 4, !tbaa !13
  %16 = sub nsw i32 %15, 81
  %17 = shl i32 %16, 8
  %18 = load ptr, ptr %3, align 8, !tbaa !12
  %19 = load i8, ptr %18, align 1, !tbaa !14
  %20 = zext i8 %19 to i32
  %21 = or i32 %17, %20
  store i32 %21, ptr %5, align 4, !tbaa !13
  br label %85

22:                                               ; preds = %11
  %23 = load i32, ptr %4, align 4, !tbaa !13
  %24 = icmp slt i32 %23, 126
  br i1 %24, label %25, label %40

25:                                               ; preds = %22
  %26 = load i32, ptr %4, align 4, !tbaa !13
  %27 = sub nsw i32 %26, 108
  %28 = shl i32 %27, 16
  %29 = load ptr, ptr %3, align 8, !tbaa !12
  %30 = getelementptr inbounds i8, ptr %29, i64 0
  %31 = load i8, ptr %30, align 1, !tbaa !14
  %32 = zext i8 %31 to i32
  %33 = shl i32 %32, 8
  %34 = or i32 %28, %33
  %35 = load ptr, ptr %3, align 8, !tbaa !12
  %36 = getelementptr inbounds i8, ptr %35, i64 1
  %37 = load i8, ptr %36, align 1, !tbaa !14
  %38 = zext i8 %37 to i32
  %39 = or i32 %34, %38
  store i32 %39, ptr %5, align 4, !tbaa !13
  br label %84

40:                                               ; preds = %22
  %41 = load i32, ptr %4, align 4, !tbaa !13
  %42 = icmp eq i32 %41, 126
  br i1 %42, label %43, label %60

43:                                               ; preds = %40
  %44 = load ptr, ptr %3, align 8, !tbaa !12
  %45 = getelementptr inbounds i8, ptr %44, i64 0
  %46 = load i8, ptr %45, align 1, !tbaa !14
  %47 = zext i8 %46 to i32
  %48 = shl i32 %47, 16
  %49 = load ptr, ptr %3, align 8, !tbaa !12
  %50 = getelementptr inbounds i8, ptr %49, i64 1
  %51 = load i8, ptr %50, align 1, !tbaa !14
  %52 = zext i8 %51 to i32
  %53 = shl i32 %52, 8
  %54 = or i32 %48, %53
  %55 = load ptr, ptr %3, align 8, !tbaa !12
  %56 = getelementptr inbounds i8, ptr %55, i64 2
  %57 = load i8, ptr %56, align 1, !tbaa !14
  %58 = zext i8 %57 to i32
  %59 = or i32 %54, %58
  store i32 %59, ptr %5, align 4, !tbaa !13
  br label %83

60:                                               ; preds = %40
  %61 = load ptr, ptr %3, align 8, !tbaa !12
  %62 = getelementptr inbounds i8, ptr %61, i64 0
  %63 = load i8, ptr %62, align 1, !tbaa !14
  %64 = zext i8 %63 to i32
  %65 = shl i32 %64, 24
  %66 = load ptr, ptr %3, align 8, !tbaa !12
  %67 = getelementptr inbounds i8, ptr %66, i64 1
  %68 = load i8, ptr %67, align 1, !tbaa !14
  %69 = zext i8 %68 to i32
  %70 = shl i32 %69, 16
  %71 = or i32 %65, %70
  %72 = load ptr, ptr %3, align 8, !tbaa !12
  %73 = getelementptr inbounds i8, ptr %72, i64 2
  %74 = load i8, ptr %73, align 1, !tbaa !14
  %75 = zext i8 %74 to i32
  %76 = shl i32 %75, 8
  %77 = or i32 %71, %76
  %78 = load ptr, ptr %3, align 8, !tbaa !12
  %79 = getelementptr inbounds i8, ptr %78, i64 3
  %80 = load i8, ptr %79, align 1, !tbaa !14
  %81 = zext i8 %80 to i32
  %82 = or i32 %77, %81
  store i32 %82, ptr %5, align 4, !tbaa !13
  br label %83

83:                                               ; preds = %60, %43
  br label %84

84:                                               ; preds = %83, %25
  br label %85

85:                                               ; preds = %84, %14
  br label %86

86:                                               ; preds = %85, %8
  %87 = load i32, ptr %5, align 4, !tbaa !13
  call void @llvm.lifetime.end.p0(i64 4, ptr %5) #8
  ret i32 %87
}