; Function Attrs: mustprogress nofree norecurse nosync nounwind willreturn memory(argmem: read) uwtable
define noundef i32 @_ZN6icu_779BytesTrie9readValueEPKhi(ptr noundef readonly captures(none) %0, i32 noundef %1) local_unnamed_addr #4 align 2 {
  %3 = icmp slt i32 %1, 81
  br i1 %3, label %4, label %6

4:                                                ; preds = %2
  %5 = add nsw i32 %1, -16
  br label %52

6:                                                ; preds = %2
  %7 = icmp samesign ult i32 %1, 108
  br i1 %7, label %8, label %14

8:                                                ; preds = %6
  %9 = shl nuw nsw i32 %1, 8
  %10 = add nsw i32 %9, -20736
  %11 = load i8, ptr %0, align 1, !tbaa !10
  %12 = zext i8 %11 to i32
  %13 = or disjoint i32 %10, %12
  br label %52

14:                                               ; preds = %6
  %15 = icmp samesign ult i32 %1, 126
  br i1 %15, label %16, label %27

16:                                               ; preds = %14
  %17 = shl nuw nsw i32 %1, 16
  %18 = add nsw i32 %17, -7077888
  %19 = load i8, ptr %0, align 1, !tbaa !10
  %20 = zext i8 %19 to i32
  %21 = shl nuw nsw i32 %20, 8
  %22 = or disjoint i32 %21, %18
  %23 = getelementptr inbounds nuw i8, ptr %0, i64 1
  %24 = load i8, ptr %23, align 1, !tbaa !10
  %25 = zext i8 %24 to i32
  %26 = or disjoint i32 %22, %25
  br label %52

27:                                               ; preds = %14
  %28 = icmp eq i32 %1, 126
  %29 = load i8, ptr %0, align 1, !tbaa !10
  %30 = zext i8 %29 to i32
  %31 = getelementptr inbounds nuw i8, ptr %0, i64 1
  %32 = load i8, ptr %31, align 1, !tbaa !10
  %33 = zext i8 %32 to i32
  %34 = getelementptr inbounds nuw i8, ptr %0, i64 2
  %35 = load i8, ptr %34, align 1, !tbaa !10
  %36 = zext i8 %35 to i32
  br i1 %28, label %37, label %42

37:                                               ; preds = %27
  %38 = shl nuw nsw i32 %30, 16
  %39 = shl nuw nsw i32 %33, 8
  %40 = or disjoint i32 %39, %38
  %41 = or disjoint i32 %40, %36
  br label %52

42:                                               ; preds = %27
  %43 = shl nuw i32 %30, 24
  %44 = shl nuw nsw i32 %33, 16
  %45 = or disjoint i32 %44, %43
  %46 = shl nuw nsw i32 %36, 8
  %47 = or disjoint i32 %45, %46
  %48 = getelementptr inbounds nuw i8, ptr %0, i64 3
  %49 = load i8, ptr %48, align 1, !tbaa !10
  %50 = zext i8 %49 to i32
  %51 = or disjoint i32 %47, %50
  br label %52

52:                                               ; preds = %8, %37, %42, %16, %4
  %.0 = phi i32 [ %5, %4 ], [ %13, %8 ], [ %26, %16 ], [ %41, %37 ], [ %51, %42 ]
  ret i32 %.0
}